; Function Attrs: mustprogress uwtable
define hidden void @_ZN4cvc58internal9TCtxStack12pushChildrenENS0_12NodeTemplateILb1EEEj(ptr noundef nonnull align 8 dereferenceable(40) %0, ptr noundef readonly captures(none) %1, i32 noundef %2) local_unnamed_addr #4 align 2 personality ptr @__gxx_personality_v0 {
  %4 = alloca %"class.cvc5::internal::NodeTemplate", align 8
  %5 = load ptr, ptr %1, align 8, !tbaa !16
  %6 = getelementptr inbounds nuw i8, ptr %5, i64 8
  %7 = load i64, ptr %6, align 8
  %8 = trunc i64 %7 to i32
  %9 = and i32 %8, 1023
  %10 = icmp eq i32 %9, 1023
  %11 = select i1 %10, i32 -1, i32 %9
  %12 = tail call noundef i32 @_ZN4cvc58internal4kind10metaKindOfENS1_6Kind_tE(i32 noundef %11)
  %13 = icmp eq i32 %12, 2
  %14 = load i64, ptr %6, align 8
  %15 = lshr i64 %14, 32
  %16 = and i64 %15, 67108863
  %17 = sext i1 %13 to i64
  %18 = add nsw i64 %16, %17
  %19 = and i64 %18, 4294967295
  %.not = icmp eq i64 %19, 0
  br i1 %.not, label %._crit_edge, label %.lr.ph

._crit_edge:                                      ; preds = %_ZN4cvc58internal12NodeTemplateILb1EED2Ev.exit, %3
  ret void

.lr.ph:                                           ; preds = %3, %_ZN4cvc58internal12NodeTemplateILb1EED2Ev.exit
  %.07 = phi i64 [ %48, %_ZN4cvc58internal12NodeTemplateILb1EED2Ev.exit ], [ 0, %3 ]
  %20 = load ptr, ptr %1, align 8, !tbaa !16
  store ptr %20, ptr %4, align 8, !tbaa !16
  %21 = load i64, ptr %20, align 8
  %22 = lshr i64 %21, 40
  %23 = trunc nuw nsw i64 %22 to i32
  %24 = and i32 %23, 1048575
  %25 = icmp samesign ult i32 %24, 1048574
  br i1 %25, label %26, label %31, !prof !19

26:                                               ; preds = %.lr.ph
  %27 = add i64 %21, 1099511627776
  %28 = and i64 %27, 1152920405095219200
  %29 = and i64 %21, -1152920405095219201
  %30 = or disjoint i64 %28, %29
  store i64 %30, ptr %20, align 8
  br label %_ZN4cvc58internal12NodeTemplateILb1EEC2ERKS2_.exit

31:                                               ; preds = %.lr.ph
  %32 = icmp eq i32 %24, 1048574
  br i1 %32, label %33, label %_ZN4cvc58internal12NodeTemplateILb1EEC2ERKS2_.exit, !prof !20

33:                                               ; preds = %31
  %34 = or i64 %21, 1152920405095219200
  store i64 %34, ptr %20, align 8
  tail call void @_ZN4cvc58internal4expr9NodeValue20markRefCountMaxedOutEv(ptr noundef nonnull align 8 dereferenceable(24) %20)
  br label %_ZN4cvc58internal12NodeTemplateILb1EEC2ERKS2_.exit

_ZN4cvc58internal12NodeTemplateILb1EEC2ERKS2_.exit: ; preds = %26, %31, %33
  invoke void @_ZN4cvc58internal9TCtxStack9pushChildENS0_12NodeTemplateILb1EEEjm(ptr noundef nonnull align 8 dereferenceable(40) %0, ptr noundef nonnull %4, i32 noundef %2, i64 noundef %.07)
          to label %35 unwind label %49

35:                                               ; preds = %_ZN4cvc58internal12NodeTemplateILb1EEC2ERKS2_.exit
  %36 = load i64, ptr %20, align 8
  %37 = and i64 %36, 1152920405095219200
  %.not.i.i = icmp eq i64 %37, 1152920405095219200
  br i1 %.not.i.i, label %_ZN4cvc58internal12NodeTemplateILb1EED2Ev.exit, label %38, !prof !20

38:                                               ; preds = %35
  %39 = add i64 %36, 1152920405095219200
  %40 = and i64 %39, 1152920405095219200
  %41 = and i64 %36, -1152920405095219201
  %42 = or disjoint i64 %40, %41
  store i64 %42, ptr %20, align 8
  %43 = icmp eq i64 %40, 0
  br i1 %43, label %44, label %_ZN4cvc58internal12NodeTemplateILb1EED2Ev.exit, !prof !20

44:                                               ; preds = %38
  invoke void @_ZN4cvc58internal4expr9NodeValue15markForDeletionEv(ptr noundef nonnull align 8 dereferenceable(24) %20)
          to label %_ZN4cvc58internal12NodeTemplateILb1EED2Ev.exit unwind label %45

45:                                               ; preds = %44
  %46 = landingpad { ptr, i32 }
          catch ptr null
  %47 = extractvalue { ptr, i32 } %46, 0
  tail call void @__clang_call_terminate(ptr %47) #20
  unreachable

_ZN4cvc58internal12NodeTemplateILb1EED2Ev.exit:   ; preds = %35, %38, %44
  %48 = add nuw nsw i64 %.07, 1
  %exitcond.not = icmp eq i64 %48, %19
  br i1 %exitcond.not, label %._crit_edge, label %.lr.ph, !llvm.loop !26

49:                                               ; preds = %_ZN4cvc58internal12NodeTemplateILb1EEC2ERKS2_.exit
  %50 = landingpad { ptr, i32 }
          cleanup
  call void @_ZN4cvc58internal12NodeTemplateILb1EED2Ev(ptr noundef nonnull align 8 dereferenceable(8) %4) #19
  resume { ptr, i32 } %50
}